target datalayout = "e-m:e-p270:32:32-p271:32:32-p272:64:64-i64:64-i128:128-f80:128-n8:16:32:64-S128"
target triple = "x86_64-pc-linux-gnu"

%struct.AVCodecContext = type { ptr, i32, i32, ptr, i32, i32, ptr, ptr, ptr, i64, i32, i32, ptr, i32, %struct.AVRational, %struct.AVRational, %struct.AVRational, i32, i32, i32, i32, i32, %struct.AVRational, i32, i32, i32, i32, i32, i32, i32, i32, i32, i32, i32, ptr, ptr, i32, float, float, float, float, float, float, float, float, float, i32, i32, i32, i32, i32, i32, i32, i32, i32, i32, i32, i32, ptr, ptr, ptr, i32, i32, i32, i32, i32, i32, i32, i32, i32, i32, %struct.AVChannelLayout, i32, i32, i32, i32, i32, i32, i32, i32, ptr, i32, i32, i32, float, float, i32, i32, i32, i32, i32, ptr, i64, i64, float, float, i32, i32, ptr, ptr, i32, i32, i32, i32, i32, ptr, ptr, ptr, ptr, i32, i32, [8 x i64], i32, i32, i32, i32, i32, i32, i32, ptr, ptr, i32, i32, i32, i32, i32, i32, i32, i32, i32, i32, ptr, ptr, i32, i32, ptr, ptr, ptr, ptr, i32, i32, i64, i32, i32, i64, ptr, i64, ptr, i32, ptr, i32 }
%struct.AVRational = type { i32, i32 }
%struct.AVChannelLayout = type { i32, i32, %union.anon.0, ptr }
%union.anon.0 = type { i64 }
%struct.AnsiContext = type { ptr, i32, i32, i32, i32, ptr, i32, i32, i32, i32, i32, i32, [4 x i32], i32 }
%struct.AVFrame = type { [8 x ptr], [8 x i32], ptr, i32, i32, i32, i32, i32, %struct.AVRational, i64, i64, %struct.AVRational, i32, ptr, i32, i32, [8 x ptr], ptr, i32, ptr, i32, i32, i32, i32, i32, i32, i32, i64, ptr, i32, ptr, ptr, i64, i64, i64, i64, ptr, %struct.AVChannelLayout, i64 }

; Function Attrs: nounwind uwtable
define internal void @erase_screen(ptr noundef %0) #1 {
  %2 = alloca ptr, align 8
  %3 = alloca ptr, align 8
  %4 = alloca i32, align 4
  store ptr %0, ptr %2, align 8, !tbaa !4
  call void @llvm.lifetime.start.p0(i64 8, ptr %3) #7
  %5 = load ptr, ptr %2, align 8, !tbaa !4
  %6 = getelementptr inbounds nuw %struct.AVCodecContext, ptr %5, i32 0, i32 6
  %7 = load ptr, ptr %6, align 8, !tbaa !9
  store ptr %7, ptr %3, align 8, !tbaa !29
  call void @llvm.lifetime.start.p0(i64 4, ptr %4) #7
  store i32 0, ptr %4, align 4, !tbaa !40
  br label %8

8:                                                ; preds = %35, %1
  %9 = load i32, ptr %4, align 4, !tbaa !40
  %10 = load ptr, ptr %2, align 8, !tbaa !4
  %11 = getelementptr inbounds nuw %struct.AVCodecContext, ptr %10, i32 0, i32 19
  %12 = load i32, ptr %11, align 4, !tbaa !39
  %13 = icmp slt i32 %9, %12
  br i1 %13, label %14, label %38

14:                                               ; preds = %8
  %15 = load ptr, ptr %3, align 8, !tbaa !29
  %16 = getelementptr inbounds nuw %struct.AnsiContext, ptr %15, i32 0, i32 0
  %17 = load ptr, ptr %16, align 8, !tbaa !41
  %18 = getelementptr inbounds nuw %struct.AVFrame, ptr %17, i32 0, i32 0
  %19 = getelementptr inbounds [8 x ptr], ptr %18, i64 0, i64 0
  %20 = load ptr, ptr %19, align 8, !tbaa !48
  %21 = load i32, ptr %4, align 4, !tbaa !40
  %22 = load ptr, ptr %3, align 8, !tbaa !29
  %23 = getelementptr inbounds nuw %struct.AnsiContext, ptr %22, i32 0, i32 0
  %24 = load ptr, ptr %23, align 8, !tbaa !41
  %25 = getelementptr inbounds nuw %struct.AVFrame, ptr %24, i32 0, i32 1
  %26 = getelementptr inbounds [8 x i32], ptr %25, i64 0, i64 0
  %27 = load i32, ptr %26, align 8, !tbaa !40
  %28 = mul nsw i32 %21, %27
  %29 = sext i32 %28 to i64
  %30 = getelementptr inbounds i8, ptr %20, i64 %29
  %31 = load ptr, ptr %2, align 8, !tbaa !4
  %32 = getelementptr inbounds nuw %struct.AVCodecContext, ptr %31, i32 0, i32 18
  %33 = load i32, ptr %32, align 8, !tbaa !38
  %34 = sext i32 %33 to i64
  call void @llvm.memset.p0.i64(ptr align 1 %30, i8 0, i64 %34, i1 false)
  br label %35

35:                                               ; preds = %14
  %36 = load i32, ptr %4, align 4, !tbaa !40
  %37 = add nsw i32 %36, 1
  store i32 %37, ptr %4, align 4, !tbaa !40
  br label %8, !llvm.loop !69

38:                                               ; preds = %8
  %39 = load ptr, ptr %3, align 8, !tbaa !29
  %40 = getelementptr inbounds nuw %struct.AnsiContext, ptr %39, i32 0, i32 2
  store i32 0, ptr %40, align 4, !tbaa !70
  %41 = load ptr, ptr %3, align 8, !tbaa !29
  %42 = getelementptr inbounds nuw %struct.AnsiContext, ptr %41, i32 0, i32 1
  store i32 0, ptr %42, align 8, !tbaa !61
  call void @llvm.lifetime.end.p0(i64 4, ptr %4) #7
  call void @llvm.lifetime.end.p0(i64 8, ptr %3) #7
  ret void
}