; Function Attrs: nofree norecurse nosync nounwind memory(readwrite, inaccessiblemem: none) uwtable
define internal fastcc void @erase_screen(ptr noundef readonly captures(none) %0) unnamed_addr #4 {
  %2 = getelementptr inbounds nuw i8, ptr %0, i64 32
  %3 = load ptr, ptr %2, align 8, !tbaa !4
  %4 = getelementptr inbounds nuw i8, ptr %0, i64 116
  %5 = load i32, ptr %4, align 4, !tbaa !35
  %6 = icmp sgt i32 %5, 0
  br i1 %6, label %.lr.ph, label %._crit_edge

.lr.ph:                                           ; preds = %1
  %7 = getelementptr inbounds nuw i8, ptr %0, i64 112
  br label %8

8:                                                ; preds = %.lr.ph, %8
  %.09 = phi i32 [ 0, %.lr.ph ], [ %18, %8 ]
  %9 = load ptr, ptr %3, align 8, !tbaa !36
  %10 = load ptr, ptr %9, align 8, !tbaa !41
  %11 = getelementptr inbounds nuw i8, ptr %9, i64 64
  %12 = load i32, ptr %11, align 8, !tbaa !42
  %13 = mul nsw i32 %12, %.09
  %14 = sext i32 %13 to i64
  %15 = getelementptr inbounds i8, ptr %10, i64 %14
  %16 = load i32, ptr %7, align 8, !tbaa !34
  %17 = sext i32 %16 to i64
  tail call void @llvm.memset.p0.i64(ptr align 1 %15, i8 0, i64 %17, i1 false)
  %18 = add nuw nsw i32 %.09, 1
  %19 = load i32, ptr %4, align 4, !tbaa !35
  %20 = icmp slt i32 %18, %19
  br i1 %20, label %8, label %._crit_edge, !llvm.loop !55

._crit_edge:                                      ; preds = %8, %1
  %21 = getelementptr inbounds nuw i8, ptr %3, i64 12
  store i32 0, ptr %21, align 4, !tbaa !56
  %22 = getelementptr inbounds nuw i8, ptr %3, i64 8
  store i32 0, ptr %22, align 8, !tbaa !57
  ret void
}